target datalayout = "e-m:e-p270:32:32-p271:32:32-p272:64:64-i64:64-i128:128-f80:128-n8:16:32:64-S128"
target triple = "x86_64-pc-linux-gnu"

%struct.pkcs7_st = type { ptr, i64, i32, i32, ptr, %union.anon.1, %struct.PKCS7_CTX_st }
%union.anon.1 = type { ptr }
%struct.PKCS7_CTX_st = type { ptr, ptr }

@.str = private unnamed_addr constant [35 x i8] c"../openssl/crypto/pkcs12/p12_add.c\00", align 1
@__func__.PKCS12_unpack_p7data = private unnamed_addr constant [21 x i8] c"PKCS12_unpack_p7data\00", align 1

; Function Attrs: nounwind uwtable
define ptr @PKCS12_unpack_p7data(ptr noundef %0) #0 {
  %2 = alloca ptr, align 8
  %3 = alloca ptr, align 8
  store ptr %0, ptr %3, align 8, !tbaa !24
  %4 = load ptr, ptr %3, align 8, !tbaa !24
  %5 = getelementptr inbounds nuw %struct.pkcs7_st, ptr %4, i32 0, i32 4
  %6 = load ptr, ptr %5, align 8, !tbaa !26
  %7 = call i32 @OBJ_obj2nid(ptr noundef %6)
  %8 = icmp eq i32 %7, 21
  br i1 %8, label %10, label %9

9:                                                ; preds = %1
  call void @ERR_new()
  call void @ERR_set_debug(ptr noundef @.str, i32 noundef 78, ptr noundef @__func__.PKCS12_unpack_p7data)
  call void (i32, i32, ptr, ...) @ERR_set_error(i32 noundef 35, i32 noundef 121, ptr noundef null)
  store ptr null, ptr %2, align 8
  br label %28

10:                                               ; preds = %1
  %11 = load ptr, ptr %3, align 8, !tbaa !24
  %12 = getelementptr inbounds nuw %struct.pkcs7_st, ptr %11, i32 0, i32 5
  %13 = load ptr, ptr %12, align 8, !tbaa !18
  %14 = icmp eq ptr %13, null
  br i1 %14, label %15, label %16

15:                                               ; preds = %10
  call void @ERR_new()
  call void @ERR_set_debug(ptr noundef @.str, i32 noundef 83, ptr noundef @__func__.PKCS12_unpack_p7data)
  call void (i32, i32, ptr, ...) @ERR_set_error(i32 noundef 35, i32 noundef 101, ptr noundef null)
  store ptr null, ptr %2, align 8
  br label %28

16:                                               ; preds = %10
  %17 = load ptr, ptr %3, align 8, !tbaa !24
  %18 = getelementptr inbounds nuw %struct.pkcs7_st, ptr %17, i32 0, i32 5
  %19 = load ptr, ptr %18, align 8, !tbaa !18
  %20 = call ptr @PKCS12_SAFEBAGS_it()
  %21 = load ptr, ptr %3, align 8, !tbaa !24
  %22 = getelementptr inbounds nuw %struct.pkcs7_st, ptr %21, i32 0, i32 6
  %23 = call ptr @ossl_pkcs7_ctx_get0_libctx(ptr noundef %22)
  %24 = load ptr, ptr %3, align 8, !tbaa !24
  %25 = getelementptr inbounds nuw %struct.pkcs7_st, ptr %24, i32 0, i32 6
  %26 = call ptr @ossl_pkcs7_ctx_get0_propq(ptr noundef %25)
  %27 = call ptr @ASN1_item_unpack_ex(ptr noundef %19, ptr noundef %20, ptr noundef %23, ptr noundef %26)
  store ptr %27, ptr %2, align 8
  br label %28

28:                                               ; preds = %16, %15, %9
  %29 = load ptr, ptr %2, align 8
  ret ptr %29
}