; Function Attrs: nounwind uwtable
define ptr @PKCS12_unpack_p7data(ptr noundef %0) local_unnamed_addr #0 {
  %2 = getelementptr inbounds nuw i8, ptr %0, i64 24
  %3 = load ptr, ptr %2, align 8, !tbaa !13
  %4 = tail call i32 @OBJ_obj2nid(ptr noundef %3) #2
  %5 = icmp eq i32 %4, 21
  br i1 %5, label %7, label %6

6:                                                ; preds = %1
  tail call void @ERR_new() #2
  tail call void @ERR_set_debug(ptr noundef nonnull @.str, i32 noundef 78, ptr noundef nonnull @__func__.PKCS12_unpack_p7data) #2
  tail call void (i32, i32, ptr, ...) @ERR_set_error(i32 noundef 35, i32 noundef 121, ptr noundef null) #2
  br label %18

7:                                                ; preds = %1
  %8 = getelementptr inbounds nuw i8, ptr %0, i64 32
  %9 = load ptr, ptr %8, align 8, !tbaa !9
  %10 = icmp eq ptr %9, null
  br i1 %10, label %11, label %12

11:                                               ; preds = %7
  tail call void @ERR_new() #2
  tail call void @ERR_set_debug(ptr noundef nonnull @.str, i32 noundef 83, ptr noundef nonnull @__func__.PKCS12_unpack_p7data) #2
  tail call void (i32, i32, ptr, ...) @ERR_set_error(i32 noundef 35, i32 noundef 101, ptr noundef null) #2
  br label %18

12:                                               ; preds = %7
  %13 = tail call ptr @PKCS12_SAFEBAGS_it() #2
  %14 = getelementptr inbounds nuw i8, ptr %0, i64 40
  %15 = tail call ptr @ossl_pkcs7_ctx_get0_libctx(ptr noundef nonnull %14) #2
  %16 = tail call ptr @ossl_pkcs7_ctx_get0_propq(ptr noundef nonnull %14) #2
  %17 = tail call ptr @ASN1_item_unpack_ex(ptr noundef nonnull %9, ptr noundef %13, ptr noundef %15, ptr noundef %16) #2
  br label %18

18:                                               ; preds = %12, %11, %6
  %.0 = phi ptr [ null, %11 ], [ %17, %12 ], [ null, %6 ]
  ret ptr %.0
}